; Function Attrs: nounwind uwtable
define void @Gia_PolyCollectRoots(ptr noundef readonly captures(none) %0, ptr noundef readonly captures(none) %1, ptr noundef readonly captures(none) %2, i32 noundef %3, ptr noundef captures(none) initializes((4, 8)) %4) local_unnamed_addr #0 {
  %6 = getelementptr inbounds nuw i8, ptr %4, i64 4
  store i32 0, ptr %6, align 4, !tbaa !29
  %7 = mul nsw i32 %3, 6
  %8 = getelementptr i8, ptr %0, i64 8
  %.val11 = load ptr, ptr %8, align 8, !tbaa !31
  %9 = sext i32 %7 to i64
  %10 = getelementptr i32, ptr %.val11, i64 %9
  %11 = getelementptr i8, ptr %10, i64 12
  %12 = load i32, ptr %11, align 4, !tbaa !32
  %13 = load i32, ptr %4, align 8, !tbaa !30
  %14 = icmp eq i32 %13, 0
  %15 = getelementptr inbounds nuw i8, ptr %4, i64 8
  %16 = load ptr, ptr %15, align 8, !tbaa !31
  br i1 %14, label %17, label %Vec_IntPush.exit

17:                                               ; preds = %5
  %.not9.i.i = icmp eq ptr %16, null
  br i1 %.not9.i.i, label %20, label %18

18:                                               ; preds = %17
  %19 = tail call dereferenceable_or_null(64) ptr @realloc(ptr noundef nonnull %16, i64 noundef 64) #20
  %.pre.pre = load i32, ptr %6, align 4, !tbaa !29
  br label %Vec_IntGrow.exit.i

20:                                               ; preds = %17
  %21 = tail call noalias dereferenceable_or_null(64) ptr @malloc(i64 noundef 64) #21
  br label %Vec_IntGrow.exit.i

Vec_IntGrow.exit.i:                               ; preds = %20, %18
  %.pre = phi i32 [ %.pre.pre, %18 ], [ 0, %20 ]
  %22 = phi ptr [ %19, %18 ], [ %21, %20 ]
  store ptr %22, ptr %15, align 8, !tbaa !31
  store i32 16, ptr %4, align 8, !tbaa !30
  %.val.pre = load ptr, ptr %8, align 8, !tbaa !31
  br label %Vec_IntPush.exit

Vec_IntPush.exit:                                 ; preds = %5, %Vec_IntGrow.exit.i
  %.val = phi ptr [ %.val.pre, %Vec_IntGrow.exit.i ], [ %.val11, %5 ]
  %23 = phi i32 [ %.pre, %Vec_IntGrow.exit.i ], [ 0, %5 ]
  %24 = phi ptr [ %22, %Vec_IntGrow.exit.i ], [ %16, %5 ]
  %25 = add nsw i32 %23, 1
  store i32 %25, ptr %6, align 4, !tbaa !29
  %26 = sext i32 %23 to i64
  %27 = getelementptr inbounds i32, ptr %24, i64 %26
  store i32 %12, ptr %27, align 4, !tbaa !32
  %28 = getelementptr i32, ptr %.val, i64 %9
  %29 = getelementptr i8, ptr %28, i64 16
  %30 = load i32, ptr %29, align 4, !tbaa !32
  %31 = load i32, ptr %6, align 4, !tbaa !29
  %32 = load i32, ptr %4, align 8, !tbaa !30
  %33 = icmp eq i32 %31, %32
  br i1 %33, label %34, label %Vec_IntPush.exit18

34:                                               ; preds = %Vec_IntPush.exit
  %35 = icmp slt i32 %31, 16
  br i1 %35, label %Vec_IntGrow.exit.i17, label %38

Vec_IntGrow.exit.i17:                             ; preds = %34
  %36 = getelementptr inbounds nuw i8, ptr %4, i64 8
  %37 = tail call dereferenceable_or_null(64) ptr @realloc(ptr noundef nonnull %24, i64 noundef 64) #20
  store ptr %37, ptr %36, align 8, !tbaa !31
  br label %Vec_IntPush.exit18.sink.split

38:                                               ; preds = %34
  %39 = shl nuw nsw i32 %31, 1
  %40 = getelementptr inbounds nuw i8, ptr %4, i64 8
  %41 = zext nneg i32 %39 to i64
  %42 = shl nuw nsw i64 %41, 2
  %43 = tail call ptr @realloc(ptr noundef nonnull %24, i64 noundef %42) #20
  store ptr %43, ptr %40, align 8, !tbaa !31
  br label %Vec_IntPush.exit18.sink.split

Vec_IntPush.exit18.sink.split:                    ; preds = %38, %Vec_IntGrow.exit.i17
  %.sink = phi i32 [ 16, %Vec_IntGrow.exit.i17 ], [ %39, %38 ]
  %.ph = phi ptr [ %37, %Vec_IntGrow.exit.i17 ], [ %43, %38 ]
  store i32 %.sink, ptr %4, align 8, !tbaa !30
  br label %Vec_IntPush.exit18

Vec_IntPush.exit18:                               ; preds = %Vec_IntPush.exit18.sink.split, %Vec_IntPush.exit
  %44 = phi ptr [ %24, %Vec_IntPush.exit ], [ %.ph, %Vec_IntPush.exit18.sink.split ]
  %45 = load i32, ptr %6, align 4, !tbaa !29
  %46 = add nsw i32 %45, 1
  store i32 %46, ptr %6, align 4, !tbaa !29
  %47 = sext i32 %45 to i64
  %48 = getelementptr inbounds i32, ptr %44, i64 %47
  store i32 %30, ptr %48, align 4, !tbaa !32
  tail call void @Gia_PolyCollectRoots_rec(ptr noundef nonnull %0, ptr noundef %1, ptr noundef %2, i32 noundef %3, ptr noundef nonnull %4)
  ret void
}